; Function Attrs: nofree norecurse nosync nounwind memory(argmem: readwrite) uwtable
define internal i32 @pg_wchar2utf_with_len(ptr noundef readonly captures(none) %0, ptr noundef writeonly captures(none) %1, i32 noundef %2) #2 {
  %4 = icmp sgt i32 %2, 0
  br i1 %4, label %.lr.ph, label %.critedge

.lr.ph:                                           ; preds = %3, %pg_utf_mblen_private.exit
  %.019 = phi ptr [ %55, %pg_utf_mblen_private.exit ], [ %0, %3 ]
  %.01218 = phi i32 [ %52, %pg_utf_mblen_private.exit ], [ 0, %3 ]
  %.01317 = phi i32 [ %56, %pg_utf_mblen_private.exit ], [ %2, %3 ]
  %.01416 = phi ptr [ %54, %pg_utf_mblen_private.exit ], [ %1, %3 ]
  %5 = load i32, ptr %.019, align 4
  %.not = icmp eq i32 %5, 0
  br i1 %.not, label %.critedge, label %6

6:                                                ; preds = %.lr.ph
  %7 = icmp ult i32 %5, 128
  br i1 %7, label %unicode_to_utf8.exit.thread, label %9

unicode_to_utf8.exit.thread:                      ; preds = %6
  %8 = trunc nuw nsw i32 %5 to i8
  store i8 %8, ptr %.01416, align 1
  br label %pg_utf_mblen_private.exit

9:                                                ; preds = %6
  %10 = icmp ult i32 %5, 2048
  br i1 %10, label %11, label %15

11:                                               ; preds = %9
  %12 = lshr i32 %5, 6
  %13 = trunc nuw i32 %12 to i8
  %14 = or disjoint i8 %13, -64
  store i8 %14, ptr %.01416, align 1
  br label %41

15:                                               ; preds = %9
  %16 = icmp ult i32 %5, 65536
  br i1 %16, label %17, label %26

17:                                               ; preds = %15
  %18 = lshr i32 %5, 12
  %19 = trunc nuw i32 %18 to i8
  %20 = or disjoint i8 %19, -32
  store i8 %20, ptr %.01416, align 1
  %21 = lshr i32 %5, 6
  %22 = trunc i32 %21 to i8
  %23 = and i8 %22, 63
  %24 = or disjoint i8 %23, -128
  %25 = getelementptr inbounds nuw i8, ptr %.01416, i64 1
  store i8 %24, ptr %25, align 1
  br label %41

26:                                               ; preds = %15
  %27 = lshr i32 %5, 18
  %28 = trunc i32 %27 to i8
  %29 = and i8 %28, 7
  %30 = or disjoint i8 %29, -16
  store i8 %30, ptr %.01416, align 1
  %31 = lshr i32 %5, 12
  %32 = trunc i32 %31 to i8
  %33 = and i8 %32, 63
  %34 = or disjoint i8 %33, -128
  %35 = getelementptr inbounds nuw i8, ptr %.01416, i64 1
  store i8 %34, ptr %35, align 1
  %36 = lshr i32 %5, 6
  %37 = trunc i32 %36 to i8
  %38 = and i8 %37, 63
  %39 = or disjoint i8 %38, -128
  %40 = getelementptr inbounds nuw i8, ptr %.01416, i64 2
  store i8 %39, ptr %40, align 1
  br label %41

41:                                               ; preds = %26, %17, %11
  %.sink26 = phi i64 [ 3, %26 ], [ 2, %17 ], [ 1, %11 ]
  %.pr = phi i8 [ %30, %26 ], [ %20, %17 ], [ %14, %11 ]
  %42 = trunc i32 %5 to i8
  %43 = and i8 %42, 63
  %44 = or disjoint i8 %43, -128
  %45 = getelementptr inbounds nuw i8, ptr %.01416, i64 %.sink26
  store i8 %44, ptr %45, align 1
  %46 = zext i8 %.pr to i32
  %47 = and i32 %46, 224
  %48 = icmp eq i32 %47, 192
  br i1 %48, label %pg_utf_mblen_private.exit, label %49

49:                                               ; preds = %41
  %50 = and i32 %46, 240
  %51 = icmp eq i32 %50, 224
  %spec.select = select i1 %51, i32 3, i32 4
  br label %pg_utf_mblen_private.exit

pg_utf_mblen_private.exit:                        ; preds = %49, %unicode_to_utf8.exit.thread, %41
  %.0.i = phi i32 [ 2, %41 ], [ 1, %unicode_to_utf8.exit.thread ], [ %spec.select, %49 ]
  %52 = add i32 %.0.i, %.01218
  %53 = zext nneg i32 %.0.i to i64
  %54 = getelementptr inbounds nuw i8, ptr %.01416, i64 %53
  %55 = getelementptr inbounds nuw i8, ptr %.019, i64 4
  %56 = add nsw i32 %.01317, -1
  %57 = icmp sgt i32 %.01317, 1
  br i1 %57, label %.lr.ph, label %.critedge, !llvm.loop !12

.critedge:                                        ; preds = %.lr.ph, %pg_utf_mblen_private.exit, %3
  %.014.lcssa = phi ptr [ %1, %3 ], [ %54, %pg_utf_mblen_private.exit ], [ %.01416, %.lr.ph ]
  %.012.lcssa = phi i32 [ 0, %3 ], [ %52, %pg_utf_mblen_private.exit ], [ %.01218, %.lr.ph ]
  store i8 0, ptr %.014.lcssa, align 1
  ret i32 %.012.lcssa
}